(dp1
S'output'
p2
S"<class 'pysqlite2.dbapi2.OperationalError'> Cannot add a UNIQUE column"
p3
sS'layer'
p4
S'/root/Documents/labs/itws2/web2py/applications/ImageJournal/models/db.py'
p5
sS'code'
p6
S"db = DAL('sqlite://storage.sqlite')\n\nfrom gluon.tools import Auth\n\nauth = Auth(db)\nauth.settings.extra_fields['auth_user'] = [ Field('dp', 'upload', label='Your Profile Picture', requires=IS_NOT_EMPTY(error_message='cannot be empty')), Field('moderator', 'boolean', default = False, writable = False, readable = False)]\nauth.settings.login_next = URL('homepage')\nauth.define_tables(username=True)\n\ndb.define_table('images',\n                Field('image', 'upload', unique = True),\n                Field('title', 'string', unique = True),\n                Field('author', 'integer'),\n                Field('upload_time', 'datetime'),\n                Field('caption', 'string'),\n                Field('num_like', 'integer', default = 0, readable = False, writable = False),\n                Field('num_wow', 'integer', default = 0, readable = False, writable = False),\n                Field('num_angry', 'integer', default = 0, readable = False, writable = False),\n                Field('num_sad', 'integer', default = 0, readable = False, writable = False),\n                Field('num_haha', 'integer', default = 0, readable = False, writable = False)\n                )\ndb.images.id.readable = False\ndb.images.upload_time.readable = db.images.upload_time.writable = False\ndb.images.author.readable = db.images.author.writable = False\ndb.images.title.requires = IS_NOT_EMPTY(error_message = 'cannot be empty!')\ndb.images.title.requires = IS_NOT_IN_DB(error_message = 'cannot be empty!')\n\ndb.define_table('comments',\n                Field('comment', 'string', requires = IS_NOT_EMPTY(error_message = 'cannot be empty!')),\n                Field('image_id', 'integer', readable = False, writable = False),\n                Field('userid', 'integer', readable = False, writable = False)\n                )\n\ndb.define_table('likes',\n                Field('type', 'integer', readable = False, writable = False),\n                Field('imageid', 'integer', readable = False, writable = False),\n                Field('userid', 'integer', readable = False, writable = False)\n                )\n"
p7
sS'snapshot'
p8
(dp9
S'exception'
p10
(dp11
S'__module__'
p12
S"'pysqlite2.dbapi2'"
p13
sS'__getslice__'
p14
S"<method-wrapper '__getslice__' of OperationalError object>"
p15
sS'__str__'
p16
S"<method-wrapper '__str__' of OperationalError object>"
p17
sS'__reduce__'
p18
S'<built-in method __reduce__ of OperationalError object>'
p19
sS'__dict__'
p20
S'{}'
p21
sS'__sizeof__'
p22
S'<built-in method __sizeof__ of OperationalError object>'
p23
sS'__weakref__'
p24
S'None'
p25
sS'__init__'
p26
S"<method-wrapper '__init__' of OperationalError object>"
p27
sS'__setattr__'
p28
S"<method-wrapper '__setattr__' of OperationalError object>"
p29
sS'__reduce_ex__'
p30
S'<built-in method __reduce_ex__ of OperationalError object>'
p31
sS'__new__'
p32
S'<built-in method __new__ of type object>'
p33
sS'__format__'
p34
S'<built-in method __format__ of OperationalError object>'
p35
sS'__class__'
p36
S"<class 'pysqlite2.dbapi2.OperationalError'>"
p37
sS'__doc__'
p38
S'None'
p39
sS'__getitem__'
p40
S"<method-wrapper '__getitem__' of OperationalError object>"
p41
sS'__setstate__'
p42
S'<built-in method __setstate__ of OperationalError object>'
p43
sS'__getattribute__'
p44
S"<method-wrapper '__getattribute__' of OperationalError object>"
p45
sS'args'
p46
S"('Cannot add a UNIQUE column',)"
p47
sS'__subclasshook__'
p48
S'<built-in method __subclasshook__ of type object>'
p49
sS'__unicode__'
p50
S'<built-in method __unicode__ of OperationalError object>'
p51
sS'__delattr__'
p52
S"<method-wrapper '__delattr__' of OperationalError object>"
p53
sS'__repr__'
p54
S"<method-wrapper '__repr__' of OperationalError object>"
p55
sS'__hash__'
p56
S"<method-wrapper '__hash__' of OperationalError object>"
p57
ssS'evalue'
p58
S'Cannot add a UNIQUE column'
p59
sS'request'
p60
cgluon.html
XML_unpickle
p61
(S's\xcc_\x00\x00<div><table><tr><td style="font-weight:bold;vertical-align:top;">ajax</td><td style="vertical-align:top;">:</td><td><div>True</div></td></tr><tr><td style="font-weight:bold;vertical-align:top;">application</td><td style="vertical-align:top;">:</td><td><div>ImageJournal</div></td></tr><tr><td style="font-weight:bold;vertical-align:top;">args</td><td style="vertical-align:top;">:</td><td><div><table></table></div></td></tr><tr><td style="font-weight:bold;vertical-align:top;">cid</td><td style="vertical-align:top;">:</td><td><div>c437756813939</div></td></tr><tr><td style="font-weight:bold;vertical-align:top;">client</td><td style="vertical-align:top;">:</td><td><div>127.0.0.1</div></td></tr><tr><td style="font-weight:bold;vertical-align:top;">controller</td><td style="vertical-align:top;">:</td><td><div>appadmin</div></td></tr><tr><td style="font-weight:bold;vertical-align:top;">cookies</td><td style="vertical-align:top;">:</td><td><div><table><tr><td style="font-weight:bold;vertical-align:top;">session_id_admin</td><td style="vertical-align:top;">:</td><td><div>127.0.0.1-01d9e8b9-416e-4c5c-b634-5b577140d664<table><tr><td style="font-weight:bold;vertical-align:top;">comment</td><td style="vertical-align:top;">:</td><td><div></div></td></tr><tr><td style="font-weight:bold;vertical-align:top;">domain</td><td style="vertical-align:top;">:</td><td><div></div></td></tr><tr><td style="font-weight:bold;vertical-align:top;">expires</td><td style="vertical-align:top;">:</td><td><div></div></td></tr><tr><td style="font-weight:bold;vertical-align:top;">httponly</td><td style="vertical-align:top;">:</td><td><div></div></td></tr><tr><td style="font-weight:bold;vertical-align:top;">max-age</td><td style="vertical-align:top;">:</td><td><div></div></td></tr><tr><td style="font-weight:bold;vertical-align:top;">path</td><td style="vertical-align:top;">:</td><td><div></div></td></tr><tr><td style="font-weight:bold;vertical-align:top;">secure</td><td style="vertical-align:top;">:</td><td><div></div></td></tr><tr><td style="font-weight:bold;vertical-align:top;">version</td><td style="vertical-align:top;">:</td><td><div></div></td></tr></table></div></td></tr><tr><td style="font-weight:bold;vertical-align:top;">session_id_imagejournal</td><td style="vertical-align:top;">:</td><td><div>127.0.0.1-52837a5b-a04f-4ba2-ade9-5827bb088757<table><tr><td style="font-weight:bold;vertical-align:top;">comment</td><td style="vertical-align:top;">:</td><td><div></div></td></tr><tr><td style="font-weight:bold;vertical-align:top;">domain</td><td style="vertical-align:top;">:</td><td><div></div></td></tr><tr><td style="font-weight:bold;vertical-align:top;">expires</td><td style="vertical-align:top;">:</td><td><div></div></td></tr><tr><td style="font-weight:bold;vertical-align:top;">httponly</td><td style="vertical-align:top;">:</td><td><div></div></td></tr><tr><td style="font-weight:bold;vertical-align:top;">max-age</td><td style="vertical-align:top;">:</td><td><div></div></td></tr><tr><td style="font-weight:bold;vertical-align:top;">path</td><td style="vertical-align:top;">:</td><td><div></div></td></tr><tr><td style="font-weight:bold;vertical-align:top;">secure</td><td style="vertical-align:top;">:</td><td><div></div></td></tr><tr><td style="font-weight:bold;vertical-align:top;">version</td><td style="vertical-align:top;">:</td><td><div></div></td></tr></table></div></td></tr><tr><td style="font-weight:bold;vertical-align:top;">session_id_welcome</td><td style="vertical-align:top;">:</td><td><div>127.0.0.1-d423fadc-b607-4bdc-a447-2b68a98e51fe<table><tr><td style="font-weight:bold;vertical-align:top;">comment</td><td style="vertical-align:top;">:</td><td><div></div></td></tr><tr><td style="font-weight:bold;vertical-align:top;">domain</td><td style="vertical-align:top;">:</td><td><div></div></td></tr><tr><td style="font-weight:bold;vertical-align:top;">expires</td><td style="vertical-align:top;">:</td><td><div></div></td></tr><tr><td style="font-weight:bold;vertical-align:top;">httponly</td><td style="vertical-align:top;">:</td><td><div></div></td></tr><tr><td style="font-weight:bold;vertical-align:top;">max-age</td><td style="vertical-align:top;">:</td><td><div></div></td></tr><tr><td style="font-weight:bold;vertical-align:top;">path</td><td style="vertical-align:top;">:</td><td><div></div></td></tr><tr><td style="font-weight:bold;vertical-align:top;">secure</td><td style="vertical-align:top;">:</td><td><div></div></td></tr><tr><td style="font-weight:bold;vertical-align:top;">version</td><td style="vertical-align:top;">:</td><td><div></div></td></tr></table></div></td></tr></table></div></td></tr><tr><td style="font-weight:bold;vertical-align:top;">env</td><td style="vertical-align:top;">:</td><td><div><table><tr><td style="font-weight:bold;vertical-align:top;">HTTP_ACCEPT</td><td style="vertical-align:top;">:</td><td><div>*/*</div></td></tr><tr><td style="font-weight:bold;vertical-align:top;">HTTP_ACCEPT_ENCODING</td><td style="vertical-align:top;">:</td><td><div>gzip, deflate</div></td></tr><tr><td style="font-weight:bold;vertical-align:top;">HTTP_ACCEPT_LANGUAGE</td><td style="vertical-align:top;">:</td><td><div>en-US,en;q=0.5</div></td></tr><tr><td style="font-weight:bold;vertical-align:top;">HTTP_CONNECTION</td><td style="vertical-align:top;">:</td><td><div>keep-alive</div></td></tr><tr><td style="font-weight:bold;vertical-align:top;">HTTP_COOKIE</td><td style="vertical-align:top;">:</td><td><div>session_id_welcome=127.0.0.1-d423fadc-b607-4bdc-a447-2b68a98e51fe; session_id_admin=127.0.0.1-01d9e8b9-416e-4c5c-b634-5b577140d664; session_id_imagejournal=127.0.0.1-52837a5b-a04f-4ba2-ade9-5827bb088757</div></td></tr><tr><td style="font-weight:bold;vertical-align:top;">HTTP_HOST</td><td style="vertical-align:top;">:</td><td><div>127.0.0.1:8000</div></td></tr><tr><td style="font-weight:bold;vertical-align:top;">HTTP_REFERER</td><td style="vertical-align:top;">:</td><td><div>http://127.0.0.1:8000/admin/default/edit/ImageJournal/models/db.py?id=models__db__py</div></td></tr><tr><td style="font-weight:bold;vertical-align:top;">HTTP_USER_AGENT</td><td style="vertical-align:top;">:</td><td><div>Mozilla/5.0 (X11; Linux x86_64; rv:45.0) Gecko/20100101 Firefox/45.0</div></td></tr><tr><td style="font-weight:bold;vertical-align:top;">HTTP_WEB2PY_COMPONENT_ELEMENT</td><td style="vertical-align:top;">:</td><td><div>c437756813939</div></td></tr><tr><td style="font-weight:bold;vertical-align:top;">HTTP_WEB2PY_COMPONENT_LOCATION</td><td style="vertical-align:top;">:</td><td><div>http://127.0.0.1:8000/admin/default/edit/ImageJournal/models/db.py?id=models__db__py#</div></td></tr><tr><td style="font-weight:bold;vertical-align:top;">HTTP_X_REQUESTED_WITH</td><td style="vertical-align:top;">:</td><td><div>XMLHttpRequest</div></td></tr><tr><td style="font-weight:bold;vertical-align:top;">PATH_INFO</td><td style="vertical-align:top;">:</td><td><div>/ImageJournal/appadmin/hooks</div></td></tr><tr><td style="font-weight:bold;vertical-align:top;">QUERY_STRING</td><td style="vertical-align:top;">:</td><td><div></div></td></tr><tr><td style="font-weight:bold;vertical-align:top;">REMOTE_ADDR</td><td style="vertical-align:top;">:</td><td><div>127.0.0.1</div></td></tr><tr><td style="font-weight:bold;vertical-align:top;">REMOTE_PORT</td><td style="vertical-align:top;">:</td><td><div>54358</div></td></tr><tr><td style="font-weight:bold;vertical-align:top;">REQUEST_METHOD</td><td style="vertical-align:top;">:</td><td><div>GET</div></td></tr><tr><td style="font-weight:bold;vertical-align:top;">SCRIPT_NAME</td><td style="vertical-align:top;">:</td><td><div></div></td></tr><tr><td style="font-weight:bold;vertical-align:top;">SERVER_NAME</td><td style="vertical-align:top;">:</td><td><div>therapist</div></td></tr><tr><td style="font-weight:bold;vertical-align:top;">SERVER_PORT</td><td style="vertical-align:top;">:</td><td><div>8000</div></td></tr><tr><td style="font-weight:bold;vertical-align:top;">SERVER_PROTOCOL</td><td style="vertical-align:top;">:</td><td><div>HTTP/1.1</div></td></tr><tr><td style="font-weight:bold;vertical-align:top;">SERVER_SOFTWARE</td><td style="vertical-align:top;">:</td><td><div>Rocket 1.2.6</div></td></tr><tr><td style="font-weight:bold;vertical-align:top;">app_folders</td><td style="vertical-align:top;">:</td><td><div>set([&#x27;/root/Documents/labs/itws2/web2py/applications/Assignment3/&#x27;, &#x27;/root/Documents/labs/itws2/web2py/applications/admin/&#x27;, &#x27;/root/Documents/labs/itws2/web2py/applications/ImageJournal/&#x27;, &#x27;/root/Documents/labs/itws2/web2py/applications/welcome/&#x27;])</div></td></tr><tr><td style="font-weight:bold;vertical-align:top;">applications_parent</td><td style="vertical-align:top;">:</td><td><div>/root/Documents/labs/itws2/web2py</div></td></tr><tr><td style="font-weight:bold;vertical-align:top;">cmd_args</td><td style="vertical-align:top;">:</td><td><div><table></table></div></td></tr><tr><td style="font-weight:bold;vertical-align:top;">cmd_options</td><td style="vertical-align:top;">:</td><td><div>&lt;Values at 0x7f638df73a28: {&#x27;verbose&#x27;: False, &#x27;ip&#x27;: &#x27;127.0.0.1&#x27;, &#x27;debuglevel&#x27;: 30, &#x27;with_scheduler&#x27;: False, &#x27;ips&#x27;: [&#x27;127.0.1.1&#x27;], &#x27;shutdown_timeout&#x27;: 5, &#x27;taskbar&#x27;: False, &#x27;with_coverage&#x27;: False, &#x27;scheduler_groups&#x27;: None, &#x27;port&#x27;: 8000, &#x27;maxthreads&#x27;: None, &#x27;softcron&#x27;: False, &#x27;server_name&#x27;: &#x27;therapist&#x27;, &#x27;bpython&#x27;: False, &#x27;nogui&#x27;: False, &#x27;pid_filename&#x27;: &#x27;httpserver.pid&#x27;, &#x27;print_errors&#x27;: False, &#x27;extcron&#x27;: False, &#x27;runcron&#x27;: False, &#x27;run_system_tests&#x27;: False, &#x27;test&#x27;: None, &#x27;folder&#x27;: &#x27;/root/Documents/labs/itws2/web2py&#x27;, &#x27;config&#x27;: &#x27;&#x27;, &#x27;minthreads&#x27;: None, &#x27;shell&#x27;: None, &#x27;run&#x27;: &#x27;&#x27;, &#x27;log_filename&#x27;: &#x27;httpserver.log&#x27;, &#x27;profiler_dir&#x27;: None, &#x27;args&#x27;: [&#x27;&#x27;], &#x27;socket_timeout&#x27;: 5, &#x27;ssl_ca_certificate&#x27;: None, &#x27;scheduler&#x27;: None, &#x27;interfaces&#x27;: None, &#x27;ssl_private_key&#x27;: &#x27;&#x27;, &#x27;gae&#x27;: None, &#x27;password&#x27;: &#x27;&lt;ask&gt;&#x27;, &#x27;request_queue_size&#x27;: 5, &#x27;ssl_certificate&#x27;: &#x27;&#x27;, &#x27;cronjob&#x27;: False, &#x27;numthreads&#x27;: None, &#x27;quiet&#x27;: False, &#x27;import_models&#x27;: False, &#x27;timeout&#x27;: 10, &#x27;plain&#x27;: False, &#x27;nobanner&#x27;: False}&gt;</div></td></tr><tr><td style="font-weight:bold;vertical-align:top;">db_sessions</td><td style="vertical-align:top;">:</td><td><div>set([])</div></td></tr><tr><td style="font-weight:bold;vertical-align:top;">debugging</td><td style="vertical-align:top;">:</td><td><div>True</div></td></tr><tr><td style="font-weight:bold;vertical-align:top;">gluon_parent</td><td style="vertical-align:top;">:</td><td><div>/root/Documents/labs/itws2/web2py</div></td></tr><tr><td style="font-weight:bold;vertical-align:top;">http_accept</td><td style="vertical-align:top;">:</td><td><div>*/*</div></td></tr><tr><td style="font-weight:bold;vertical-align:top;">http_accept_encoding</td><td style="vertical-align:top;">:</td><td><div>gzip, deflate</div></td></tr><tr><td style="font-weight:bold;vertical-align:top;">http_accept_language</td><td style="vertical-align:top;">:</td><td><div>en-US,en;q=0.5</div></td></tr><tr><td style="font-weight:bold;vertical-align:top;">http_connection</td><td style="vertical-align:top;">:</td><td><div>keep-alive</div></td></tr><tr><td style="font-weight:bold;vertical-align:top;">http_cookie</td><td style="vertical-align:top;">:</td><td><div>session_id_welcome=127.0.0.1-d423fadc-b607-4bdc-a447-2b68a98e51fe; session_id_admin=127.0.0.1-01d9e8b9-416e-4c5c-b634-5b577140d664; session_id_imagejournal=127.0.0.1-52837a5b-a04f-4ba2-ade9-5827bb088757</div></td></tr><tr><td style="font-weight:bold;vertical-align:top;">http_host</td><td style="vertical-align:top;">:</td><td><div>127.0.0.1:8000</div></td></tr><tr><td style="font-weight:bold;vertical-align:top;">http_referer</td><td style="vertical-align:top;">:</td><td><div>http://127.0.0.1:8000/admin/default/edit/ImageJournal/models/db.py?id=models__db__py</div></td></tr><tr><td style="font-weight:bold;vertical-align:top;">http_user_agent</td><td style="vertical-align:top;">:</td><td><div>Mozilla/5.0 (X11; Linux x86_64; rv:45.0) Gecko/20100101 Firefox/45.0</div></td></tr><tr><td style="font-weight:bold;vertical-align:top;">http_web2py_component_element</td><td style="vertical-align:top;">:</td><td><div>c437756813939</div></td></tr><tr><td style="font-weight:bold;vertical-align:top;">http_web2py_component_location</td><td style="vertical-align:top;">:</td><td><div>http://127.0.0.1:8000/admin/default/edit/ImageJournal/models/db.py?id=models__db__py#</div></td></tr><tr><td style="font-weight:bold;vertical-align:top;">http_x_requested_with</td><td style="vertical-align:top;">:</td><td><div>XMLHttpRequest</div></td></tr><tr><td style="font-weight:bold;vertical-align:top;">is_jython</td><td style="vertical-align:top;">:</td><td><div>False</div></td></tr><tr><td style="font-weight:bold;vertical-align:top;">is_pypy</td><td style="vertical-align:top;">:</td><td><div>False</div></td></tr><tr><td style="font-weight:bold;vertical-align:top;">is_source</td><td style="vertical-align:top;">:</td><td><div>True</div></td></tr><tr><td style="font-weight:bold;vertical-align:top;">local_hosts</td><td style="vertical-align:top;">:</td><td><div><table><tr><td><div>127.0.1.1</div></td></tr><tr><td><div>::1</div></td></tr><tr><td><div>therapist</div></td></tr><tr><td><div>::ffff:127.0.0.1</div></td></tr><tr><td><div>127.0.0.1</div></td></tr></table></div></td></tr><tr><td style="font-weight:bold;vertical-align:top;">path_info</td><td style="vertical-align:top;">:</td><td><div>/ImageJournal/appadmin/hooks</div></td></tr><tr><td style="font-weight:bold;vertical-align:top;">query_string</td><td style="vertical-align:top;">:</td><td><div></div></td></tr><tr><td style="font-weight:bold;vertical-align:top;">remote_addr</td><td style="vertical-align:top;">:</td><td><div>127.0.0.1</div></td></tr><tr><td style="font-weight:bold;vertical-align:top;">remote_port</td><td style="vertical-align:top;">:</td><td><div>54358</div></td></tr><tr><td style="font-weight:bold;vertical-align:top;">request_method</td><td style="vertical-align:top;">:</td><td><div>GET</div></td></tr><tr><td style="font-weight:bold;vertical-align:top;">request_uri</td><td style="vertical-align:top;">:</td><td><div>/ImageJournal/appadmin/hooks</div></td></tr><tr><td style="font-weight:bold;vertical-align:top;">script_name</td><td style="vertical-align:top;">:</td><td><div></div></td></tr><tr><td style="font-weight:bold;vertical-align:top;">server_name</td><td style="vertical-align:top;">:</td><td><div>therapist</div></td></tr><tr><td style="font-weight:bold;vertical-align:top;">server_port</td><td style="vertical-align:top;">:</td><td><div>8000</div></td></tr><tr><td style="font-weight:bold;vertical-align:top;">server_protocol</td><td style="vertical-align:top;">:</td><td><div>HTTP/1.1</div></td></tr><tr><td style="font-weight:bold;vertical-align:top;">server_software</td><td style="vertical-align:top;">:</td><td><div>Rocket 1.2.6</div></td></tr><tr><td style="font-weight:bold;vertical-align:top;">web2py_path</td><td style="vertical-align:top;">:</td><td><div>/root/Documents/labs/itws2/web2py</div></td></tr><tr><td style="font-weight:bold;vertical-align:top;">web2py_version</td><td style="vertical-align:top;">:</td><td><div>2.13.4-stable+timestamp.2015.12.26.04.59.39</div></td></tr><tr><td style="font-weight:bold;vertical-align:top;">wsgi.errors</td><td style="vertical-align:top;">:</td><td><div>&lt;open file &#x27;&lt;stderr&gt;&#x27;, mode &#x27;w&#x27; at 0x7f638fc651e0&gt;</div></td></tr><tr><td style="font-weight:bold;vertical-align:top;">wsgi.file_wrapper</td><td style="vertical-align:top;">:</td><td><div>&lt;class wsgiref.util.FileWrapper at 0x7f638dfa6258&gt;</div></td></tr><tr><td style="font-weight:bold;vertical-align:top;">wsgi.input</td><td style="vertical-align:top;">:</td><td><div>&lt;socket._fileobject object at 0x7f6345a62150&gt;</div></td></tr><tr><td style="font-weight:bold;vertical-align:top;">wsgi.multiprocess</td><td style="vertical-align:top;">:</td><td><div>False</div></td></tr><tr><td style="font-weight:bold;vertical-align:top;">wsgi.multithread</td><td style="vertical-align:top;">:</td><td><div>True</div></td></tr><tr><td style="font-weight:bold;vertical-align:top;">wsgi.run_once</td><td style="vertical-align:top;">:</td><td><div>False</div></td></tr><tr><td style="font-weight:bold;vertical-align:top;">wsgi.url_scheme</td><td style="vertical-align:top;">:</td><td><div>http</div></td></tr><tr><td style="font-weight:bold;vertical-align:top;">wsgi.version</td><td style="vertical-align:top;">:</td><td><div><table><tr><td><div>1</div></td></tr><tr><td><div>0</div></td></tr></table></div></td></tr><tr><td style="font-weight:bold;vertical-align:top;">wsgi_errors</td><td style="vertical-align:top;">:</td><td><div>&lt;open file &#x27;&lt;stderr&gt;&#x27;, mode &#x27;w&#x27; at 0x7f638fc651e0&gt;</div></td></tr><tr><td style="font-weight:bold;vertical-align:top;">wsgi_file_wrapper</td><td style="vertical-align:top;">:</td><td><div>&lt;class wsgiref.util.FileWrapper at 0x7f638dfa6258&gt;</div></td></tr><tr><td style="font-weight:bold;vertical-align:top;">wsgi_input</td><td style="vertical-align:top;">:</td><td><div>&lt;socket._fileobject object at 0x7f6345a62150&gt;</div></td></tr><tr><td style="font-weight:bold;vertical-align:top;">wsgi_multiprocess</td><td style="vertical-align:top;">:</td><td><div>False</div></td></tr><tr><td style="font-weight:bold;vertical-align:top;">wsgi_multithread</td><td style="vertical-align:top;">:</td><td><div>True</div></td></tr><tr><td style="font-weight:bold;vertical-align:top;">wsgi_run_once</td><td style="vertical-align:top;">:</td><td><div>False</div></td></tr><tr><td style="font-weight:bold;vertical-align:top;">wsgi_url_scheme</td><td style="vertical-align:top;">:</td><td><div>http</div></td></tr><tr><td style="font-weight:bold;vertical-align:top;">wsgi_version</td><td style="vertical-align:top;">:</td><td><div><table><tr><td><div>1</div></td></tr><tr><td><div>0</div></td></tr></table></div></td></tr></table></div></td></tr><tr><td style="font-weight:bold;vertical-align:top;">extension</td><td style="vertical-align:top;">:</td><td><div>html</div></td></tr><tr><td style="font-weight:bold;vertical-align:top;">folder</td><td style="vertical-align:top;">:</td><td><div>/root/Documents/labs/itws2/web2py/applications/ImageJournal/</div></td></tr><tr><td style="font-weight:bold;vertical-align:top;">function</td><td style="vertical-align:top;">:</td><td><div>hooks</div></td></tr><tr><td style="font-weight:bold;vertical-align:top;">global_settings</td><td style="vertical-align:top;">:</td><td><div><table><tr><td style="font-weight:bold;vertical-align:top;">app_folders</td><td style="vertical-align:top;">:</td><td><div>set([&#x27;/root/Documents/labs/itws2/web2py/applications/Assignment3/&#x27;, &#x27;/root/Documents/labs/itws2/web2py/applications/admin/&#x27;, &#x27;/root/Documents/labs/itws2/web2py/applications/ImageJournal/&#x27;, &#x27;/root/Documents/labs/itws2/web2py/applications/welcome/&#x27;])</div></td></tr><tr><td style="font-weight:bold;vertical-align:top;">applications_parent</td><td style="vertical-align:top;">:</td><td><div>/root/Documents/labs/itws2/web2py</div></td></tr><tr><td style="font-weight:bold;vertical-align:top;">cmd_args</td><td style="vertical-align:top;">:</td><td><div><table></table></div></td></tr><tr><td style="font-weight:bold;vertical-align:top;">cmd_options</td><td style="vertical-align:top;">:</td><td><div>&lt;Values at 0x7f638df73a28: {&#x27;verbose&#x27;: False, &#x27;ip&#x27;: &#x27;127.0.0.1&#x27;, &#x27;debuglevel&#x27;: 30, &#x27;with_scheduler&#x27;: False, &#x27;ips&#x27;: [&#x27;127.0.1.1&#x27;], &#x27;shutdown_timeout&#x27;: 5, &#x27;taskbar&#x27;: False, &#x27;with_coverage&#x27;: False, &#x27;scheduler_groups&#x27;: None, &#x27;port&#x27;: 8000, &#x27;maxthreads&#x27;: None, &#x27;softcron&#x27;: False, &#x27;server_name&#x27;: &#x27;therapist&#x27;, &#x27;bpython&#x27;: False, &#x27;nogui&#x27;: False, &#x27;pid_filename&#x27;: &#x27;httpserver.pid&#x27;, &#x27;print_errors&#x27;: False, &#x27;extcron&#x27;: False, &#x27;runcron&#x27;: False, &#x27;run_system_tests&#x27;: False, &#x27;test&#x27;: None, &#x27;folder&#x27;: &#x27;/root/Documents/labs/itws2/web2py&#x27;, &#x27;config&#x27;: &#x27;&#x27;, &#x27;minthreads&#x27;: None, &#x27;shell&#x27;: None, &#x27;run&#x27;: &#x27;&#x27;, &#x27;log_filename&#x27;: &#x27;httpserver.log&#x27;, &#x27;profiler_dir&#x27;: None, &#x27;args&#x27;: [&#x27;&#x27;], &#x27;socket_timeout&#x27;: 5, &#x27;ssl_ca_certificate&#x27;: None, &#x27;scheduler&#x27;: None, &#x27;interfaces&#x27;: None, &#x27;ssl_private_key&#x27;: &#x27;&#x27;, &#x27;gae&#x27;: None, &#x27;password&#x27;: &#x27;&lt;ask&gt;&#x27;, &#x27;request_queue_size&#x27;: 5, &#x27;ssl_certificate&#x27;: &#x27;&#x27;, &#x27;cronjob&#x27;: False, &#x27;numthreads&#x27;: None, &#x27;quiet&#x27;: False, &#x27;import_models&#x27;: False, &#x27;timeout&#x27;: 10, &#x27;plain&#x27;: False, &#x27;nobanner&#x27;: False}&gt;</div></td></tr><tr><td style="font-weight:bold;vertical-align:top;">db_sessions</td><td style="vertical-align:top;">:</td><td><div>set([])</div></td></tr><tr><td style="font-weight:bold;vertical-align:top;">debugging</td><td style="vertical-align:top;">:</td><td><div>True</div></td></tr><tr><td style="font-weight:bold;vertical-align:top;">gluon_parent</td><td style="vertical-align:top;">:</td><td><div>/root/Documents/labs/itws2/web2py</div></td></tr><tr><td style="font-weight:bold;vertical-align:top;">is_jython</td><td style="vertical-align:top;">:</td><td><div>False</div></td></tr><tr><td style="font-weight:bold;vertical-align:top;">is_pypy</td><td style="vertical-align:top;">:</td><td><div>False</div></td></tr><tr><td style="font-weight:bold;vertical-align:top;">is_source</td><td style="vertical-align:top;">:</td><td><div>True</div></td></tr><tr><td style="font-weight:bold;vertical-align:top;">local_hosts</td><td style="vertical-align:top;">:</td><td><div><table><tr><td><div>127.0.1.1</div></td></tr><tr><td><div>::1</div></td></tr><tr><td><div>therapist</div></td></tr><tr><td><div>::ffff:127.0.0.1</div></td></tr><tr><td><div>127.0.0.1</div></td></tr></table></div></td></tr><tr><td style="font-weight:bold;vertical-align:top;">web2py_version</td><td style="vertical-align:top;">:</td><td><div>2.13.4-stable+timestamp.2015.12.26.04.59.39</div></td></tr></table></div></td></tr><tr><td style="font-weight:bold;vertical-align:top;">is_https</td><td style="vertical-align:top;">:</td><td><div>False</div></td></tr><tr><td style="font-weight:bold;vertical-align:top;">is_local</td><td style="vertical-align:top;">:</td><td><div>True</div></td></tr><tr><td style="font-weight:bold;vertical-align:top;">is_restful</td><td style="vertical-align:top;">:</td><td><div>False</div></td></tr><tr><td style="font-weight:bold;vertical-align:top;">is_scheduler</td><td style="vertical-align:top;">:</td><td><div>False</div></td></tr><tr><td style="font-weight:bold;vertical-align:top;">is_shell</td><td style="vertical-align:top;">:</td><td><div>False</div></td></tr><tr><td style="font-weight:bold;vertical-align:top;">now</td><td style="vertical-align:top;">:</td><td><div>datetime.datetime(2016, 4, 8, 23, 39, 34, 984097)</div></td></tr><tr><td style="font-weight:bold;vertical-align:top;">raw_args</td><td style="vertical-align:top;">:</td><td><div></div></td></tr><tr><td style="font-weight:bold;vertical-align:top;">raw_extension</td><td style="vertical-align:top;">:</td><td><div>None</div></td></tr><tr><td style="font-weight:bold;vertical-align:top;">url</td><td style="vertical-align:top;">:</td><td><div>/ImageJournal/appadmin/hooks</div></td></tr><tr><td style="font-weight:bold;vertical-align:top;">utcnow</td><td style="vertical-align:top;">:</td><td><div>datetime.datetime(2016, 4, 8, 18, 9, 34, 984128)</div></td></tr><tr><td style="font-weight:bold;vertical-align:top;">wsgi</td><td style="vertical-align:top;">:</td><td><div>&lt;gluon.main.LazyWSGI object at 0x7f6344702f50&gt;</div></td></tr></table></div>'
tRp62
sS'frames'
p63
(lp64
(dp65
S'file'
p66
S'/root/Documents/labs/itws2/web2py/gluon/restricted.py'
p67
sS'dump'
p68
(dp69
S'environment'
p70
S"{'A': <class 'gluon.html.A'>, 'ANY_OF': <class 'gluon.validators.ANY_OF'>, 'ASSIGNJS': <function ASSIGNJS>, 'Auth': <class 'gluon.tools.Auth'>, 'B': <class 'gluon.html.B'>, 'BEAUTIFY': <class 'gluon.html.BEAUTIFY'>, 'BODY': <class 'gluon.html.BODY'>, 'BR': <class 'gluon.html.BR'>, 'BUTTON': <class 'gluon.html.BUTTON'>, 'CAT': <class 'gluon.html.CAT'>, ...}"
p71
sS'ccode'
p72
S'<code object <module> at 0x7f634459f430, file "/.../applications/ImageJournal/models/db.py", line 1>'
p73
ssS'lnum'
p74
I227
sS'lines'
p75
(dp76
I224
S'            ccode = code'
p77
sI225
S'        else:'
p78
sI226
S'            ccode = compile2(code, layer)'
p79
sI227
S'        exec ccode in environment'
p80
sI228
S'    except HTTP:'
p81
sI229
S'        raise'
p82
sI230
S'    except RestrictedError:'
p83
sI231
S'        # do not encapsulate (obfuscate) the original RestrictedError'
p84
sI222
S'    try:'
p85
sI223
S'        if isinstance(code, types.CodeType):'
p86
ssS'call'
p87
S'(code="db = DAL(\'sqlite://storage.sqlite\')\\n\\nfrom gluon....ble = False, writable = False)\\n                )\\n", environment={\'A\': <class \'gluon.html.A\'>, \'ANY_OF\': <class \'gluon.validators.ANY_OF\'>, \'ASSIGNJS\': <function ASSIGNJS>, \'Auth\': <class \'gluon.tools.Auth\'>, \'B\': <class \'gluon.html.B\'>, \'BEAUTIFY\': <class \'gluon.html.BEAUTIFY\'>, \'BODY\': <class \'gluon.html.BODY\'>, \'BR\': <class \'gluon.html.BR\'>, \'BUTTON\': <class \'gluon.html.BUTTON\'>, \'CAT\': <class \'gluon.html.CAT\'>, ...}, layer=\'/root/Documents/labs/itws2/web2py/applications/ImageJournal/models/db.py\')'
p88
sS'func'
p89
S'restricted'
p90
sa(dp91
g66
S'/root/Documents/labs/itws2/web2py/applications/ImageJournal/models/db.py'
p92
sg68
(dp93
S'default'
p94
S'undefined'
p95
sS'Field'
p96
S"<class 'pydal.objects.Field'>"
p97
sS'writable'
p98
g95
sS'readable'
p99
g95
sS'builtinFalse'
p100
S'False'
p101
ssg74
I20
sg75
(dp102
I15
S"                Field('caption', 'string'),"
p103
sI16
S"                Field('num_like', 'integer', default = 0, readable = False, writable = False),"
p104
sI17
S"                Field('num_wow', 'integer', default = 0, readable = False, writable = False),"
p105
sI18
S"                Field('num_angry', 'integer', default = 0, readable = False, writable = False),"
p106
sI19
S"                Field('num_sad', 'integer', default = 0, readable = False, writable = False),"
p107
sI20
S"                Field('num_haha', 'integer', default = 0, readable = False, writable = False)"
p108
sI21
S'                )'
p109
sI22
S'db.images.id.readable = False'
p110
sI23
S'db.images.upload_time.readable = db.images.upload_time.writable = False'
p111
sI24
S'db.images.author.readable = db.images.author.writable = False'
p112
ssg87
S'()'
p113
sg89
S'<module>'
p114
sa(dp115
g66
S'/root/Documents/labs/itws2/web2py/gluon/packages/dal/pydal/base.py'
p116
sg68
(dp117
S'fields'
p118
S'(<pydal.objects.Field object>, <pydal.objects.Field object>, <pydal.objects.Field object>, <pydal.objects.Field object>, <pydal.objects.Field object>, <pydal.objects.Field object>, <pydal.objects.Field object>, <pydal.objects.Field object>, <pydal.objects.Field object>, <pydal.objects.Field object>)'
p119
sS'self'
p120
S'<DAL uri="sqlite://storage.sqlite">'
p121
sS'args'
p122
g21
sS'tablename'
p123
S"'images'"
p124
sS'table'
p125
g95
sS'self.lazy_define_table'
p126
S'<bound method DAL.lazy_define_table of <DAL uri="sqlite://storage.sqlite">>'
p127
ssg74
I834
sg75
(dp128
I832
S'            table = None'
p129
sI833
S'        else:'
p130
sI834
S'            table = self.lazy_define_table(tablename,*fields,**args)'
p131
sI835
S'        if not tablename in self.tables:'
p132
sI836
S'            self.tables.append(tablename)'
p133
sI837
S'        return table'
p134
sI838
S''
sI829
S'                    % (tablename,invalid_args))'
p135
sI830
S'        if self._lazy_tables and tablename not in self._LAZY_TABLES:'
p136
sI831
S'            self._LAZY_TABLES[tablename] = (tablename,fields,args)'
p137
ssg87
S'(self=<DAL uri="sqlite://storage.sqlite">, tablename=\'images\', *fields=(<pydal.objects.Field object>, <pydal.objects.Field object>, <pydal.objects.Field object>, <pydal.objects.Field object>, <pydal.objects.Field object>, <pydal.objects.Field object>, <pydal.objects.Field object>, <pydal.objects.Field object>, <pydal.objects.Field object>, <pydal.objects.Field object>), **args={})'
p138
sg89
S'define_table'
p139
sa(dp140
g66
S'/root/Documents/labs/itws2/web2py/gluon/packages/dal/pydal/base.py'
p141
sg68
(dp142
S'polymodel'
p143
S'None'
p144
ssg74
I873
sg75
(dp145
I868
S'            try:'
p146
sI869
S'                GLOBAL_LOCKER.acquire()'
p147
sI870
S'                self._lastsql = self._adapter.create_table('
p148
sI871
S'                    table,migrate=migrate,'
p149
sI872
S'                    fake_migrate=fake_migrate,'
p150
sI873
S'                    polymodel=polymodel)'
p151
sI874
S'            finally:'
p152
sI875
S'                GLOBAL_LOCKER.release()'
p153
sI876
S'        else:'
p154
sI877
S'            table._dbt = None'
p155
ssg87
S'(self=<DAL uri="sqlite://storage.sqlite">, tablename=\'images\', *fields=(<pydal.objects.Field object>, <pydal.objects.Field object>, <pydal.objects.Field object>, <pydal.objects.Field object>, <pydal.objects.Field object>, <pydal.objects.Field object>, <pydal.objects.Field object>, <pydal.objects.Field object>, <pydal.objects.Field object>, <pydal.objects.Field object>), **args={})'
p156
sg89
S'lazy_define_table'
p157
sa(dp158
g66
S'/root/Documents/labs/itws2/web2py/gluon/packages/dal/pydal/adapters/base.py'
p159
sg68
(dp160
S'fake_migrate'
p161
g101
ssg74
I510
sg75
(dp162
I512
S'        return query'
p163
sI513
S''
sI514
S'    def migrate_table('
p164
sI505
S'            if sql_fields != sql_fields_old:'
p165
sI506
S'                self.migrate_table('
p166
sI507
S'                    table,'
p167
sI508
S'                    sql_fields, sql_fields_old,'
p168
sI509
S'                    sql_fields_aux, None,'
p169
sI510
S'                    fake_migrate=fake_migrate'
p170
sI511
S'                    )'
p171
ssg87
S'(self=<pydal.adapters.sqlite.SQLiteAdapter object>, table=<Table images (id,image,title,author,upload_time...ion,num_like,num_wow,num_angry,num_sad,num_haha)>, migrate=True, fake_migrate=False, polymodel=None)'
p172
sg89
S'create_table'
p173
sa(dp174
g66
S'/root/Documents/labs/itws2/web2py/gluon/packages/dal/pydal/adapters/base.py'
p175
sg68
(dp176
S'self'
p177
S'<pydal.adapters.sqlite.SQLiteAdapter object>'
p178
sS'self.execute'
p179
S'<bound method SQLiteAdapter.execute of <pydal.adapters.sqlite.SQLiteAdapter object>>'
p180
sS'sub_query'
p181
S"'ALTER TABLE images ADD image CHAR(512) UNIQUE;'"
p182
ssg74
I623
sg75
(dp183
I618
S'                    if fake_migrate:'
p184
sI619
S'                        if db._adapter.commit_on_alter_table:'
p185
sI620
S'                            self.save_dbt(table,sql_fields_current)'
p186
sI621
S"                        self.log('faked!\\n', table)"
p187
sI622
S'                    else:'
p188
sI623
S'                        self.execute(sub_query)'
p189
sI624
S'                        # Caveat: mysql, oracle and firebird'
p190
sI625
S'                        # do not allow multiple alter table'
p191
sI626
S'                        # in one transaction so we must commit'
p192
sI627
S'                        # partial transactions and'
p193
ssg87
S"(self=<pydal.adapters.sqlite.SQLiteAdapter object>, table=<Table images (id,image,title,author,upload_time...ion,num_like,num_wow,num_angry,num_sad,num_haha)>, sql_fields={'author': {'length': 512, 'notnull': False, 'sortable': 4, 'sql': 'INTEGER', 'type': 'integer', 'unique': False}, 'caption': {'length': 512, 'notnull': False, 'sortable': 6, 'sql': 'CHAR(512)', 'type': 'string', 'unique': False}, 'id': {'length': 512, 'notnull': False, 'sortable': 1, 'sql': 'INTEGER PRIMARY KEY AUTOINCREMENT', 'type': 'id', 'unique': False}, 'image': {'length': 512, 'notnull': False, 'sortable': 2, 'sql': 'CHAR(512) UNIQUE', 'type': 'upload', 'unique': True}, 'num_angry': {'length': 512, 'notnull': False, 'sortable': 9, 'sql': 'INTEGER', 'type': 'integer', 'unique': False}, 'num_haha': {'length': 512, 'notnull': False, 'sortable': 11, 'sql': 'INTEGER', 'type': 'integer', 'unique': False}, 'num_like': {'length': 512, 'notnull': False, 'sortable': 7, 'sql': 'INTEGER', 'type': 'integer', 'unique': False}, 'num_sad': {'length': 512, 'notnull': False, 'sortable': 10, 'sql': 'INTEGER', 'type': 'integer', 'unique': False}, 'num_wow': {'length': 512, 'notnull': False, 'sortable': 8, 'sql': 'INTEGER', 'type': 'integer', 'unique': False}, 'title': {'length': 512, 'notnull': False, 'sortable': 3, 'sql': 'CHAR(512) UNIQUE', 'type': 'string', 'unique': True}, ...}, sql_fields_old={'author': {'length': 512, 'notnull': False, 'sortable': 3, 'sql': 'INTEGER', 'type': 'integer', 'unique': False}, 'caption': {'length': 512, 'notnull': False, 'sortable': 5, 'sql': 'CHAR(512)', 'type': 'string', 'unique': False}, 'id': {'length': 512, 'notnull': False, 'sortable': 1, 'sql': 'INTEGER PRIMARY KEY AUTOINCREMENT', 'type': 'id', 'unique': False}, 'num_angry': {'length': 512, 'notnull': False, 'sortable': 8, 'sql': 'INTEGER', 'type': 'integer', 'unique': False}, 'num_haha': {'length': 512, 'notnull': False, 'sortable': 10, 'sql': 'INTEGER', 'type': 'integer', 'unique': False}, 'num_like': {'length': 512, 'notnull': False, 'sortable': 6, 'sql': 'INTEGER', 'type': 'integer', 'unique': False}, 'num_sad': {'length': 512, 'notnull': False, 'sortable': 9, 'sql': 'INTEGER', 'type': 'integer', 'unique': False}, 'num_wow': {'length': 512, 'notnull': False, 'sortable': 7, 'sql': 'INTEGER', 'type': 'integer', 'unique': False}, 'title': {'length': 512, 'notnull': False, 'sortable': 3, 'sql': 'CHAR(512) UNIQUE', 'type': 'string', 'unique': True}, 'upload_time': {'length': 512, 'notnull': False, 'sortable': 5, 'sql': 'TIMESTAMP', 'type': 'datetime', 'unique': False}}, sql_fields_aux={'author': {'sql': 'INTEGER'}, 'caption': {'sql': 'CHAR(512)'}, 'id': {'sql': 'INTEGER PRIMARY KEY AUTOINCREMENT'}, 'image': {'sql': 'CHAR(512) UNIQUE'}, 'num_angry': {'sql': 'INTEGER'}, 'num_haha': {'sql': 'INTEGER'}, 'num_like': {'sql': 'INTEGER'}, 'num_sad': {'sql': 'INTEGER'}, 'num_wow': {'sql': 'INTEGER'}, 'title': {'sql': 'CHAR(512) UNIQUE'}, ...}, logfile=None, fake_migrate=False)"
p194
sg89
S'migrate_table'
p195
sa(dp196
g66
S'/root/Documents/labs/itws2/web2py/gluon/packages/dal/pydal/adapters/base.py'
p197
sg68
(dp198
S'a'
S"('ALTER TABLE images ADD image CHAR(512) UNIQUE;',)"
p199
sS'self'
p200
S'<pydal.adapters.sqlite.SQLiteAdapter object>'
p201
sS'b'
g21
sS'self.log_execute'
p202
S'<bound method SQLiteAdapter.log_execute of <pydal.adapters.sqlite.SQLiteAdapter object>>'
p203
ssg74
I1385
sg75
(dp204
I1380
S'        self.db._timings.append((command,time.time()-t0))'
p205
sI1381
S'        del self.db._timings[:-TIMINGSSIZE]'
p206
sI1382
S'        return ret'
p207
sI1383
S''
sI1384
S'    def execute(self, *a, **b):'
p208
sI1385
S'        return self.log_execute(*a, **b)'
p209
sI1386
S''
sI1387
S'    def execute_test_query(self):'
p210
sI1388
S'        return self.execute(self.test_query)'
p211
sI1389
S''
ssg87
S"(self=<pydal.adapters.sqlite.SQLiteAdapter object>, *a=('ALTER TABLE images ADD image CHAR(512) UNIQUE;',), **b={})"
p212
sg89
S'execute'
p213
sa(dp214
g66
S'/root/Documents/labs/itws2/web2py/gluon/packages/dal/pydal/adapters/base.py'
p215
sg68
(dp216
S'a'
S"('ALTER TABLE images ADD image CHAR(512) UNIQUE;',)"
p217
sS'b'
g21
sS'self'
p218
S'<pydal.adapters.sqlite.SQLiteAdapter object>'
p219
sS'ret'
p220
g95
sS'command'
p221
S"'ALTER TABLE images ADD image CHAR(512) UNIQUE;'"
p222
sS'self.get_cursor'
p223
S'<bound method SQLiteAdapter.get_cursor of <pydal.adapters.sqlite.SQLiteAdapter object>>'
p224
sS').execute'
p225
g95
ssg74
I1379
sg75
(dp226
I1376
S"            self.db.logger.debug('SQL: %s' % command)"
p227
sI1377
S'        self.db._lastsql = command'
p228
sI1378
S'        t0 = time.time()'
p229
sI1379
S'        ret = self.get_cursor().execute(command, *a[1:], **b)'
p230
sI1380
S'        self.db._timings.append((command,time.time()-t0))'
p231
sI1381
S'        del self.db._timings[:-TIMINGSSIZE]'
p232
sI1382
S'        return ret'
p233
sI1383
S''
sI1374
S'            command = self.filter_sql_command(command)'
p234
sI1375
S'        if self.db._debug:'
p235
ssg87
S"(self=<pydal.adapters.sqlite.SQLiteAdapter object>, *a=('ALTER TABLE images ADD image CHAR(512) UNIQUE;',), **b={})"
p236
sg89
S'log_execute'
p237
sasS'pyver'
p238
S'Python 2.7.11+: /usr/bin/python (prefix: /usr)'
p239
sS'session'
p240
g61
(S's\x1a\x00\x00\x00<div><table></table></div>'
tRp241
sS'etype'
p242
S"<class 'pysqlite2.dbapi2.OperationalError'>"
p243
sS'date'
p244
S'Fri Apr  8 23:39:35 2016'
p245
sS'response'
p246
g61
(S's\xe2\x16\x00\x00<div><table><tr><td style="font-weight:bold;vertical-align:top;">body</td><td style="vertical-align:top;">:</td><td><div>&lt;cStringIO.StringO object at 0x7f63444b1848&gt;</div></td></tr><tr><td style="font-weight:bold;vertical-align:top;">cookies</td><td style="vertical-align:top;">:</td><td><div><table><tr><td style="font-weight:bold;vertical-align:top;">session_id_imagejournal</td><td style="vertical-align:top;">:</td><td><div>127.0.0.1-3c1b9df9-9cbf-4ef0-9539-8536f2508ea6<table><tr><td style="font-weight:bold;vertical-align:top;">comment</td><td style="vertical-align:top;">:</td><td><div></div></td></tr><tr><td style="font-weight:bold;vertical-align:top;">domain</td><td style="vertical-align:top;">:</td><td><div></div></td></tr><tr><td style="font-weight:bold;vertical-align:top;">expires</td><td style="vertical-align:top;">:</td><td><div></div></td></tr><tr><td style="font-weight:bold;vertical-align:top;">httponly</td><td style="vertical-align:top;">:</td><td><div></div></td></tr><tr><td style="font-weight:bold;vertical-align:top;">max-age</td><td style="vertical-align:top;">:</td><td><div></div></td></tr><tr><td style="font-weight:bold;vertical-align:top;">path</td><td style="vertical-align:top;">:</td><td><div>/</div></td></tr><tr><td style="font-weight:bold;vertical-align:top;">secure</td><td style="vertical-align:top;">:</td><td><div></div></td></tr><tr><td style="font-weight:bold;vertical-align:top;">version</td><td style="vertical-align:top;">:</td><td><div></div></td></tr></table></div></td></tr></table></div></td></tr><tr><td style="font-weight:bold;vertical-align:top;">delimiters</td><td style="vertical-align:top;">:</td><td><div><table><tr><td><div>{{</div></td></tr><tr><td><div>}}</div></td></tr></table></div></td></tr><tr><td style="font-weight:bold;vertical-align:top;">files</td><td style="vertical-align:top;">:</td><td><div><table></table></div></td></tr><tr><td style="font-weight:bold;vertical-align:top;">flash</td><td style="vertical-align:top;">:</td><td><div></div></td></tr><tr><td style="font-weight:bold;vertical-align:top;">form_label_separator</td><td style="vertical-align:top;">:</td><td><div>: </div></td></tr><tr><td style="font-weight:bold;vertical-align:top;">formstyle</td><td style="vertical-align:top;">:</td><td><div>table3cols</div></td></tr><tr><td style="font-weight:bold;vertical-align:top;">generic_patterns</td><td style="vertical-align:top;">:</td><td><div><table><tr><td><div>*</div></td></tr></table></div></td></tr><tr><td style="font-weight:bold;vertical-align:top;">headers</td><td style="vertical-align:top;">:</td><td><div><table><tr><td style="font-weight:bold;vertical-align:top;">X-Powered-By</td><td style="vertical-align:top;">:</td><td><div>web2py</div></td></tr></table></div></td></tr><tr><td style="font-weight:bold;vertical-align:top;">menu</td><td style="vertical-align:top;">:</td><td><div><table></table></div></td></tr><tr><td style="font-weight:bold;vertical-align:top;">meta</td><td style="vertical-align:top;">:</td><td><div><table></table></div></td></tr><tr><td style="font-weight:bold;vertical-align:top;">models_to_run</td><td style="vertical-align:top;">:</td><td><div><table><tr><td><div>^\\w+\\.py$</div></td></tr><tr><td><div>^appadmin/\\w+\\.py$</div></td></tr><tr><td><div>^appadmin/hooks/\\w+\\.py$</div></td></tr></table></div></td></tr><tr><td style="font-weight:bold;vertical-align:top;">postprocessing</td><td style="vertical-align:top;">:</td><td><div><table></table></div></td></tr><tr><td style="font-weight:bold;vertical-align:top;">session_client</td><td style="vertical-align:top;">:</td><td><div>127.0.0.1</div></td></tr><tr><td style="font-weight:bold;vertical-align:top;">session_cookie_compression_level</td><td style="vertical-align:top;">:</td><td><div>None</div></td></tr><tr><td style="font-weight:bold;vertical-align:top;">session_cookie_expires</td><td style="vertical-align:top;">:</td><td><div>None</div></td></tr><tr><td style="font-weight:bold;vertical-align:top;">session_cookie_key</td><td style="vertical-align:top;">:</td><td><div>None</div></td></tr><tr><td style="font-weight:bold;vertical-align:top;">session_data_name</td><td style="vertical-align:top;">:</td><td><div>session_data_imagejournal</div></td></tr><tr><td style="font-weight:bold;vertical-align:top;">session_file</td><td style="vertical-align:top;">:</td><td><div>None</div></td></tr><tr><td style="font-weight:bold;vertical-align:top;">session_filename</td><td style="vertical-align:top;">:</td><td><div>/root/Documents/labs/itws2/web2py/applications/ImageJournal/sessions/127.0.0.1-3c1b9df9-9cbf-4ef0-9539-8536f2508ea6</div></td></tr><tr><td style="font-weight:bold;vertical-align:top;">session_hash</td><td style="vertical-align:top;">:</td><td><div>c0762cbf4baf7f9af97c051e7fcb8083</div></td></tr><tr><td style="font-weight:bold;vertical-align:top;">session_id</td><td style="vertical-align:top;">:</td><td><div>127.0.0.1-3c1b9df9-9cbf-4ef0-9539-8536f2508ea6</div></td></tr><tr><td style="font-weight:bold;vertical-align:top;">session_id_name</td><td style="vertical-align:top;">:</td><td><div>session_id_imagejournal</div></td></tr><tr><td style="font-weight:bold;vertical-align:top;">session_masterapp</td><td style="vertical-align:top;">:</td><td><div>ImageJournal</div></td></tr><tr><td style="font-weight:bold;vertical-align:top;">session_new</td><td style="vertical-align:top;">:</td><td><div>True</div></td></tr><tr><td style="font-weight:bold;vertical-align:top;">session_storage_type</td><td style="vertical-align:top;">:</td><td><div>file</div></td></tr><tr><td style="font-weight:bold;vertical-align:top;">status</td><td style="vertical-align:top;">:</td><td><div>200</div></td></tr><tr><td style="font-weight:bold;vertical-align:top;">view</td><td style="vertical-align:top;">:</td><td><div>appadmin/hooks.html</div></td></tr></table></div>'
tRp247
sS'locals'
p248
(dp249
S'a'
S"('ALTER TABLE images ADD image CHAR(512) UNIQUE;',)"
p250
sS'self'
p251
S'<pydal.adapters.sqlite.SQLiteAdapter object>'
p252
sS'b'
g21
sS'command'
p253
S"'ALTER TABLE images ADD image CHAR(512) UNIQUE;'"
p254
sS't0'
p255
S'1460138975.117063'
p256
sssS'traceback'
p257
S'Traceback (most recent call last):\n  File "/root/Documents/labs/itws2/web2py/gluon/restricted.py", line 227, in restricted\n    exec ccode in environment\n  File "/root/Documents/labs/itws2/web2py/applications/ImageJournal/models/db.py", line 20, in <module>\n    Field(\'num_haha\', \'integer\', default = 0, readable = False, writable = False)\n  File "/root/Documents/labs/itws2/web2py/gluon/packages/dal/pydal/base.py", line 834, in define_table\n    table = self.lazy_define_table(tablename,*fields,**args)\n  File "/root/Documents/labs/itws2/web2py/gluon/packages/dal/pydal/base.py", line 873, in lazy_define_table\n    polymodel=polymodel)\n  File "/root/Documents/labs/itws2/web2py/gluon/packages/dal/pydal/adapters/base.py", line 510, in create_table\n    fake_migrate=fake_migrate\n  File "/root/Documents/labs/itws2/web2py/gluon/packages/dal/pydal/adapters/base.py", line 623, in migrate_table\n    self.execute(sub_query)\n  File "/root/Documents/labs/itws2/web2py/gluon/packages/dal/pydal/adapters/base.py", line 1385, in execute\n    return self.log_execute(*a, **b)\n  File "/root/Documents/labs/itws2/web2py/gluon/packages/dal/pydal/adapters/base.py", line 1379, in log_execute\n    ret = self.get_cursor().execute(command, *a[1:], **b)\nOperationalError: Cannot add a UNIQUE column\n'
p258
s.